; Function Attrs: inlinehint nounwind uwtable
define internal fastcc void @put_bits63(ptr noundef nonnull captures(none) %0, i32 noundef range(i32 0, 256) %1, i64 noundef %2) unnamed_addr #7 {
  %4 = icmp samesign ult i32 %1, 32
  br i1 %4, label %5, label %35

5:                                                ; preds = %3
  %6 = trunc i64 %2 to i32
  %7 = load i32, ptr %0, align 8, !tbaa !115
  %8 = getelementptr inbounds nuw i8, ptr %0, i64 4
  %9 = load i32, ptr %8, align 4, !tbaa !116
  %10 = icmp slt i32 %1, %9
  br i1 %10, label %11, label %15

11:                                               ; preds = %5
  %12 = shl i32 %7, %1
  %13 = or i32 %12, %6
  %14 = sub nsw i32 %9, %1
  br label %put_bits.exit

15:                                               ; preds = %5
  %16 = getelementptr inbounds nuw i8, ptr %0, i64 24
  %17 = load ptr, ptr %16, align 8, !tbaa !108
  %18 = getelementptr inbounds nuw i8, ptr %0, i64 16
  %19 = load ptr, ptr %18, align 8, !tbaa !109
  %20 = ptrtoint ptr %17 to i64
  %21 = ptrtoint ptr %19 to i64
  %22 = sub i64 %20, %21
  %23 = icmp ugt i64 %22, 3
  br i1 %23, label %24, label %32

24:                                               ; preds = %15
  %25 = shl i32 %7, %9
  %26 = sub nsw i32 %1, %9
  %27 = lshr i32 %6, %26
  %28 = or i32 %27, %25
  %29 = tail call i32 @llvm.bswap.i32(i32 %28)
  store i32 %29, ptr %19, align 1, !tbaa !51
  %30 = load ptr, ptr %18, align 8, !tbaa !109
  %31 = getelementptr inbounds nuw i8, ptr %30, i64 4
  store ptr %31, ptr %18, align 8, !tbaa !109
  br label %33

32:                                               ; preds = %15
  tail call void (ptr, i32, ptr, ...) @av_log(ptr noundef null, i32 noundef 16, ptr noundef nonnull @.str.14) #12
  br label %33

33:                                               ; preds = %32, %24
  %reass.sub20 = sub i32 %9, %1
  %34 = add i32 %reass.sub20, 32
  br label %put_bits.exit

put_bits.exit:                                    ; preds = %11, %33
  %.026.i.i = phi i32 [ %13, %11 ], [ %6, %33 ]
  %.0.i.i = phi i32 [ %14, %11 ], [ %34, %33 ]
  store i32 %.026.i.i, ptr %0, align 8, !tbaa !115
  store i32 %.0.i.i, ptr %8, align 4, !tbaa !116
  br label %117

35:                                               ; preds = %3
  %36 = icmp eq i32 %1, 32
  br i1 %36, label %37, label %62

37:                                               ; preds = %35
  %38 = trunc i64 %2 to i32
  %39 = getelementptr inbounds nuw i8, ptr %0, i64 4
  %40 = load i32, ptr %39, align 4, !tbaa !116
  %41 = getelementptr inbounds nuw i8, ptr %0, i64 24
  %42 = load ptr, ptr %41, align 8, !tbaa !108
  %43 = getelementptr inbounds nuw i8, ptr %0, i64 16
  %44 = load ptr, ptr %43, align 8, !tbaa !109
  %45 = ptrtoint ptr %42 to i64
  %46 = ptrtoint ptr %44 to i64
  %47 = sub i64 %45, %46
  %48 = icmp ugt i64 %47, 3
  br i1 %48, label %49, label %61

49:                                               ; preds = %37
  %50 = load i32, ptr %0, align 8, !tbaa !115
  %51 = zext i32 %50 to i64
  %52 = zext nneg i32 %40 to i64
  %53 = shl i64 %51, %52
  %54 = trunc i64 %53 to i32
  %55 = sub nsw i32 32, %40
  %56 = lshr i32 %38, %55
  %57 = or i32 %56, %54
  %58 = tail call i32 @llvm.bswap.i32(i32 %57)
  store i32 %58, ptr %44, align 1, !tbaa !51
  %59 = load ptr, ptr %43, align 8, !tbaa !109
  %60 = getelementptr inbounds nuw i8, ptr %59, i64 4
  store ptr %60, ptr %43, align 8, !tbaa !109
  br label %put_bits32.exit

61:                                               ; preds = %37
  tail call void (ptr, i32, ptr, ...) @av_log(ptr noundef null, i32 noundef 16, ptr noundef nonnull @.str.14) #12
  br label %put_bits32.exit

put_bits32.exit:                                  ; preds = %49, %61
  store i32 %38, ptr %0, align 8, !tbaa !115
  store i32 %40, ptr %39, align 4, !tbaa !116
  br label %117

62:                                               ; preds = %35
  %63 = icmp samesign ult i32 %1, 64
  br i1 %63, label %64, label %117

64:                                               ; preds = %62
  %65 = trunc i64 %2 to i32
  %66 = lshr i64 %2, 32
  %67 = trunc nuw i64 %66 to i32
  %68 = add nsw i32 %1, -32
  %69 = load i32, ptr %0, align 8, !tbaa !115
  %70 = getelementptr inbounds nuw i8, ptr %0, i64 4
  %71 = load i32, ptr %70, align 4, !tbaa !116
  %72 = icmp slt i32 %68, %71
  br i1 %72, label %73, label %77

73:                                               ; preds = %64
  %74 = shl i32 %69, %68
  %75 = or i32 %74, %67
  %76 = sub nsw i32 %71, %68
  br label %put_bits.exit17

77:                                               ; preds = %64
  %78 = getelementptr inbounds nuw i8, ptr %0, i64 24
  %79 = load ptr, ptr %78, align 8, !tbaa !108
  %80 = getelementptr inbounds nuw i8, ptr %0, i64 16
  %81 = load ptr, ptr %80, align 8, !tbaa !109
  %82 = ptrtoint ptr %79 to i64
  %83 = ptrtoint ptr %81 to i64
  %84 = sub i64 %82, %83
  %85 = icmp ugt i64 %84, 3
  br i1 %85, label %86, label %94

86:                                               ; preds = %77
  %87 = shl i32 %69, %71
  %88 = sub nsw i32 %68, %71
  %89 = lshr i32 %67, %88
  %90 = or i32 %89, %87
  %91 = tail call i32 @llvm.bswap.i32(i32 %90)
  store i32 %91, ptr %81, align 1, !tbaa !51
  %92 = load ptr, ptr %80, align 8, !tbaa !109
  %93 = getelementptr inbounds nuw i8, ptr %92, i64 4
  store ptr %93, ptr %80, align 8, !tbaa !109
  br label %95

94:                                               ; preds = %77
  tail call void (ptr, i32, ptr, ...) @av_log(ptr noundef null, i32 noundef 16, ptr noundef nonnull @.str.14) #12
  br label %95

95:                                               ; preds = %94, %86
  %reass.sub = sub i32 %71, %1
  %96 = add i32 %reass.sub, 64
  br label %put_bits.exit17

put_bits.exit17:                                  ; preds = %73, %95
  %.026.i.i15 = phi i32 [ %75, %73 ], [ %67, %95 ]
  %.0.i.i16 = phi i32 [ %76, %73 ], [ %96, %95 ]
  store i32 %.026.i.i15, ptr %0, align 8, !tbaa !115
  store i32 %.0.i.i16, ptr %70, align 4, !tbaa !116
  %97 = getelementptr inbounds nuw i8, ptr %0, i64 24
  %98 = load ptr, ptr %97, align 8, !tbaa !108
  %99 = getelementptr inbounds nuw i8, ptr %0, i64 16
  %100 = load ptr, ptr %99, align 8, !tbaa !109
  %101 = ptrtoint ptr %98 to i64
  %102 = ptrtoint ptr %100 to i64
  %103 = sub i64 %101, %102
  %104 = icmp ugt i64 %103, 3
  br i1 %104, label %105, label %116

105:                                              ; preds = %put_bits.exit17
  %106 = zext i32 %.026.i.i15 to i64
  %107 = zext nneg i32 %.0.i.i16 to i64
  %108 = shl i64 %106, %107
  %109 = trunc i64 %108 to i32
  %110 = sub nsw i32 32, %.0.i.i16
  %111 = lshr i32 %65, %110
  %112 = or i32 %111, %109
  %113 = tail call i32 @llvm.bswap.i32(i32 %112)
  store i32 %113, ptr %100, align 1, !tbaa !51
  %114 = load ptr, ptr %99, align 8, !tbaa !109
  %115 = getelementptr inbounds nuw i8, ptr %114, i64 4
  store ptr %115, ptr %99, align 8, !tbaa !109
  br label %put_bits32.exit18

116:                                              ; preds = %put_bits.exit17
  tail call void (ptr, i32, ptr, ...) @av_log(ptr noundef null, i32 noundef 16, ptr noundef nonnull @.str.14) #12
  br label %put_bits32.exit18

put_bits32.exit18:                                ; preds = %105, %116
  store i32 %65, ptr %0, align 8, !tbaa !115
  store i32 %.0.i.i16, ptr %70, align 4, !tbaa !116
  br label %117

117:                                              ; preds = %put_bits32.exit, %put_bits32.exit18, %62, %put_bits.exit
  ret void
}